target datalayout = "e-m:e-p270:32:32-p271:32:32-p272:64:64-i64:64-i128:128-f80:128-n8:16:32:64-S128"
target triple = "x86_64-pc-linux-gnu"

; Function Attrs: nounwind sspstrong uwtable
define dso_local i64 @ruby_scan_digits(ptr noundef %0, i64 noundef %1, i32 noundef %2, ptr noundef %3, ptr noundef %4) #2 {
  %6 = alloca i64, align 8
  %7 = alloca ptr, align 8
  %8 = alloca i64, align 8
  %9 = alloca i32, align 4
  %10 = alloca ptr, align 8
  %11 = alloca ptr, align 8
  %12 = alloca ptr, align 8
  %13 = alloca i64, align 8
  %14 = alloca i64, align 8
  %15 = alloca i64, align 8
  %16 = alloca i32, align 4
  %17 = alloca i32, align 4
  store ptr %0, ptr %7, align 8, !tbaa !7
  store i64 %1, ptr %8, align 8, !tbaa !12
  store i32 %2, ptr %9, align 4, !tbaa !20
  store ptr %3, ptr %10, align 8, !tbaa !14
  store ptr %4, ptr %11, align 8, !tbaa !22
  call void @llvm.lifetime.start.p0(i64 8, ptr %12) #16
  %18 = load ptr, ptr %7, align 8, !tbaa !7
  store ptr %18, ptr %12, align 8, !tbaa !7
  call void @llvm.lifetime.start.p0(i64 8, ptr %13) #16
  store i64 0, ptr %13, align 8, !tbaa !12
  call void @llvm.lifetime.start.p0(i64 8, ptr %14) #16
  call void @llvm.lifetime.start.p0(i64 8, ptr %15) #16
  %19 = load i32, ptr %9, align 4, !tbaa !20
  %20 = sext i32 %19 to i64
  %21 = udiv i64 -1, %20
  store i64 %21, ptr %15, align 8, !tbaa !12
  %22 = load ptr, ptr %11, align 8, !tbaa !22
  store i32 0, ptr %22, align 4, !tbaa !20
  %23 = load i64, ptr %8, align 8, !tbaa !12
  %24 = icmp ne i64 %23, 0
  br i1 %24, label %27, label %25

25:                                               ; preds = %5
  %26 = load ptr, ptr %10, align 8, !tbaa !14
  store i64 0, ptr %26, align 8, !tbaa !12
  store i64 0, ptr %6, align 8
  store i32 1, ptr %16, align 4
  br label %87

27:                                               ; preds = %5
  br label %28

28:                                               ; preds = %77, %27
  call void @llvm.lifetime.start.p0(i64 4, ptr %17) #16
  %29 = load ptr, ptr %7, align 8, !tbaa !7
  %30 = getelementptr i8, ptr %29, i32 1
  store ptr %30, ptr %7, align 8, !tbaa !7
  %31 = load i8, ptr %29, align 1, !tbaa !16
  %32 = zext i8 %31 to i64
  %33 = getelementptr [256 x i8], ptr @ruby_digit36_to_number_table, i64 0, i64 %32
  %34 = load i8, ptr %33, align 1, !tbaa !16
  %35 = sext i8 %34 to i32
  store i32 %35, ptr %17, align 4, !tbaa !20
  %36 = load i32, ptr %17, align 4, !tbaa !20
  %37 = icmp eq i32 %36, -1
  br i1 %37, label %42, label %38

38:                                               ; preds = %28
  %39 = load i32, ptr %9, align 4, !tbaa !20
  %40 = load i32, ptr %17, align 4, !tbaa !20
  %41 = icmp sle i32 %39, %40
  br i1 %41, label %42, label %45

42:                                               ; preds = %38, %28
  %43 = load ptr, ptr %7, align 8, !tbaa !7
  %44 = getelementptr i8, ptr %43, i32 -1
  store ptr %44, ptr %7, align 8, !tbaa !7
  store i32 2, ptr %16, align 4
  br label %67

45:                                               ; preds = %38
  %46 = load i64, ptr %15, align 8, !tbaa !12
  %47 = load i64, ptr %13, align 8, !tbaa !12
  %48 = icmp ult i64 %46, %47
  br i1 %48, label %49, label %51

49:                                               ; preds = %45
  %50 = load ptr, ptr %11, align 8, !tbaa !22
  store i32 1, ptr %50, align 4, !tbaa !20
  br label %51

51:                                               ; preds = %49, %45
  %52 = load i32, ptr %9, align 4, !tbaa !20
  %53 = sext i32 %52 to i64
  %54 = load i64, ptr %13, align 8, !tbaa !12
  %55 = mul i64 %54, %53
  store i64 %55, ptr %13, align 8, !tbaa !12
  %56 = load i64, ptr %13, align 8, !tbaa !12
  store i64 %56, ptr %14, align 8, !tbaa !12
  %57 = load i32, ptr %17, align 4, !tbaa !20
  %58 = sext i32 %57 to i64
  %59 = load i64, ptr %13, align 8, !tbaa !12
  %60 = add i64 %59, %58
  store i64 %60, ptr %13, align 8, !tbaa !12
  %61 = load i64, ptr %13, align 8, !tbaa !12
  %62 = load i64, ptr %14, align 8, !tbaa !12
  %63 = icmp ult i64 %61, %62
  br i1 %63, label %64, label %66

64:                                               ; preds = %51
  %65 = load ptr, ptr %11, align 8, !tbaa !22
  store i32 1, ptr %65, align 4, !tbaa !20
  br label %66

66:                                               ; preds = %64, %51
  store i32 0, ptr %16, align 4
  br label %67

67:                                               ; preds = %66, %42
  call void @llvm.lifetime.end.p0(i64 4, ptr %17) #16
  %68 = load i32, ptr %16, align 4
  switch i32 %68, label %89 [
    i32 0, label %69
    i32 2, label %79
  ]

69:                                               ; preds = %67
  br label %70

70:                                               ; preds = %69
  %71 = load i64, ptr %8, align 8, !tbaa !12
  %72 = icmp slt i64 %71, 0
  br i1 %72, label %77, label %73

73:                                               ; preds = %70
  %74 = load i64, ptr %8, align 8, !tbaa !12
  %75 = add i64 %74, -1
  store i64 %75, ptr %8, align 8, !tbaa !12
  %76 = icmp ne i64 %75, 0
  br label %77

77:                                               ; preds = %73, %70
  %78 = phi i1 [ true, %70 ], [ %76, %73 ]
  br i1 %78, label %28, label %79, !llvm.loop !24

79:                                               ; preds = %77, %67
  %80 = load ptr, ptr %7, align 8, !tbaa !7
  %81 = load ptr, ptr %12, align 8, !tbaa !7
  %82 = ptrtoint ptr %80 to i64
  %83 = ptrtoint ptr %81 to i64
  %84 = sub i64 %82, %83
  %85 = load ptr, ptr %10, align 8, !tbaa !14
  store i64 %84, ptr %85, align 8, !tbaa !12
  %86 = load i64, ptr %13, align 8, !tbaa !12
  store i64 %86, ptr %6, align 8
  store i32 1, ptr %16, align 4
  br label %87

87:                                               ; preds = %79, %25
  call void @llvm.lifetime.end.p0(i64 8, ptr %15) #16
  call void @llvm.lifetime.end.p0(i64 8, ptr %14) #16
  call void @llvm.lifetime.end.p0(i64 8, ptr %13) #16
  call void @llvm.lifetime.end.p0(i64 8, ptr %12) #16
  %88 = load i64, ptr %6, align 8
  ret i64 %88

89:                                               ; preds = %67
  unreachable
}

; Function Attrs: inlinehint nounwind sspstrong willreturn memory(none) uwtable
define internal i32 @rb_isspace(i32 noundef %0) #4 {
  %2 = alloca i32, align 4
  store i32 %0, ptr %2, align 4, !tbaa !20
  %3 = load i32, ptr %2, align 4, !tbaa !20
  %4 = icmp eq i32 %3, 32
  br i1 %4, label %13, label %5

5:                                                ; preds = %1
  %6 = load i32, ptr %2, align 4, !tbaa !20
  %7 = icmp sle i32 9, %6
  br i1 %7, label %8, label %11

8:                                                ; preds = %5
  %9 = load i32, ptr %2, align 4, !tbaa !20
  %10 = icmp sle i32 %9, 13
  br label %11

11:                                               ; preds = %8, %5
  %12 = phi i1 [ false, %5 ], [ %10, %8 ]
  br label %13

13:                                               ; preds = %11, %1
  %14 = phi i1 [ true, %1 ], [ %12, %11 ]
  %15 = zext i1 %14 to i32
  ret i32 %15
}

; Function Attrs: nounwind sspstrong uwtable
define dso_local i64 @ruby_strtoul(ptr noundef nonnull %0, ptr noundef %1, i32 noundef %2) #2 {
  %4 = alloca i64, align 8
  %5 = alloca ptr, align 8
  %6 = alloca ptr, align 8
  %7 = alloca i32, align 4
  %8 = alloca i32, align 4
  %9 = alloca i32, align 4
  %10 = alloca i32, align 4
  %11 = alloca i32, align 4
  %12 = alloca i64, align 8
  %13 = alloca i64, align 8
  %14 = alloca ptr, align 8
  %15 = alloca i32, align 4
  store ptr %0, ptr %5, align 8, !tbaa !7
  store ptr %1, ptr %6, align 8, !tbaa !25
  store i32 %2, ptr %7, align 4, !tbaa !20
  call void @llvm.lifetime.start.p0(i64 4, ptr %8) #16
  call void @llvm.lifetime.start.p0(i64 4, ptr %9) #16
  call void @llvm.lifetime.start.p0(i64 4, ptr %10) #16
  call void @llvm.lifetime.start.p0(i64 4, ptr %11) #16
  store i32 0, ptr %11, align 4, !tbaa !20
  call void @llvm.lifetime.start.p0(i64 8, ptr %12) #16
  call void @llvm.lifetime.start.p0(i64 8, ptr %13) #16
  call void @llvm.lifetime.start.p0(i64 8, ptr %14) #16
  %16 = load ptr, ptr %5, align 8, !tbaa !7
  store ptr %16, ptr %14, align 8, !tbaa !7
  %17 = load i32, ptr %7, align 4, !tbaa !20
  %18 = icmp slt i32 %17, 0
  br i1 %18, label %19, label %21

19:                                               ; preds = %3
  %20 = call ptr @rb_errno_ptr()
  store i32 22, ptr %20, align 4, !tbaa !20
  store i64 0, ptr %4, align 8
  store i32 1, ptr %15, align 4
  br label %136

21:                                               ; preds = %3
  %22 = load i32, ptr %7, align 4, !tbaa !20
  %23 = icmp eq i32 %22, 1
  br i1 %23, label %27, label %24

24:                                               ; preds = %21
  %25 = load i32, ptr %7, align 4, !tbaa !20
  %26 = icmp slt i32 36, %25
  br i1 %26, label %27, label %29

27:                                               ; preds = %24, %21
  %28 = call ptr @rb_errno_ptr()
  store i32 22, ptr %28, align 4, !tbaa !20
  store i64 0, ptr %4, align 8
  store i32 1, ptr %15, align 4
  br label %136

29:                                               ; preds = %24
  br label %30

30:                                               ; preds = %41, %29
  %31 = load ptr, ptr %5, align 8, !tbaa !7
  %32 = load i8, ptr %31, align 1, !tbaa !16
  %33 = sext i8 %32 to i32
  store i32 %33, ptr %8, align 4, !tbaa !20
  %34 = icmp ne i32 %33, 0
  br i1 %34, label %35, label %39

35:                                               ; preds = %30
  %36 = load i32, ptr %8, align 4, !tbaa !20
  %37 = call i32 @rb_isspace(i32 noundef %36) #17
  %38 = icmp ne i32 %37, 0
  br label %39

39:                                               ; preds = %35, %30
  %40 = phi i1 [ false, %30 ], [ %38, %35 ]
  br i1 %40, label %41, label %44

41:                                               ; preds = %39
  %42 = load ptr, ptr %5, align 8, !tbaa !7
  %43 = getelementptr i8, ptr %42, i32 1
  store ptr %43, ptr %5, align 8, !tbaa !7
  br label %30, !llvm.loop !27

44:                                               ; preds = %39
  %45 = load i32, ptr %8, align 4, !tbaa !20
  %46 = icmp eq i32 %45, 43
  br i1 %46, label %47, label %50

47:                                               ; preds = %44
  store i32 1, ptr %11, align 4, !tbaa !20
  %48 = load ptr, ptr %5, align 8, !tbaa !7
  %49 = getelementptr i8, ptr %48, i32 1
  store ptr %49, ptr %5, align 8, !tbaa !7
  br label %57

50:                                               ; preds = %44
  %51 = load i32, ptr %8, align 4, !tbaa !20
  %52 = icmp eq i32 %51, 45
  br i1 %52, label %53, label %56

53:                                               ; preds = %50
  store i32 -1, ptr %11, align 4, !tbaa !20
  %54 = load ptr, ptr %5, align 8, !tbaa !7
  %55 = getelementptr i8, ptr %54, i32 1
  store ptr %55, ptr %5, align 8, !tbaa !7
  br label %56

56:                                               ; preds = %53, %50
  br label %57

57:                                               ; preds = %56, %47
  %58 = load ptr, ptr %5, align 8, !tbaa !7
  %59 = getelementptr i8, ptr %58, i64 0
  %60 = load i8, ptr %59, align 1, !tbaa !16
  %61 = sext i8 %60 to i32
  %62 = icmp eq i32 %61, 48
  br i1 %62, label %63, label %98

63:                                               ; preds = %57
  %64 = load ptr, ptr %5, align 8, !tbaa !7
  %65 = getelementptr i8, ptr %64, i64 1
  store ptr %65, ptr %14, align 8, !tbaa !7
  %66 = load i32, ptr %7, align 4, !tbaa !20
  %67 = icmp eq i32 %66, 0
  br i1 %67, label %71, label %68

68:                                               ; preds = %63
  %69 = load i32, ptr %7, align 4, !tbaa !20
  %70 = icmp eq i32 %69, 16
  br i1 %70, label %71, label %93

71:                                               ; preds = %68, %63
  %72 = load ptr, ptr %5, align 8, !tbaa !7
  %73 = getelementptr i8, ptr %72, i64 1
  %74 = load i8, ptr %73, align 1, !tbaa !16
  %75 = sext i8 %74 to i32
  %76 = icmp eq i32 %75, 120
  br i1 %76, label %83, label %77

77:                                               ; preds = %71
  %78 = load ptr, ptr %5, align 8, !tbaa !7
  %79 = getelementptr i8, ptr %78, i64 1
  %80 = load i8, ptr %79, align 1, !tbaa !16
  %81 = sext i8 %80 to i32
  %82 = icmp eq i32 %81, 88
  br i1 %82, label %83, label %86

83:                                               ; preds = %77, %71
  store i32 16, ptr %9, align 4, !tbaa !20
  %84 = load ptr, ptr %5, align 8, !tbaa !7
  %85 = getelementptr i8, ptr %84, i64 2
  store ptr %85, ptr %5, align 8, !tbaa !7
  br label %92

86:                                               ; preds = %77
  %87 = load i32, ptr %7, align 4, !tbaa !20
  %88 = icmp eq i32 %87, 0
  %89 = select i1 %88, i32 8, i32 16
  store i32 %89, ptr %9, align 4, !tbaa !20
  %90 = load ptr, ptr %5, align 8, !tbaa !7
  %91 = getelementptr i8, ptr %90, i32 1
  store ptr %91, ptr %5, align 8, !tbaa !7
  br label %92

92:                                               ; preds = %86, %83
  br label %97

93:                                               ; preds = %68
  %94 = load i32, ptr %7, align 4, !tbaa !20
  store i32 %94, ptr %9, align 4, !tbaa !20
  %95 = load ptr, ptr %5, align 8, !tbaa !7
  %96 = getelementptr i8, ptr %95, i32 1
  store ptr %96, ptr %5, align 8, !tbaa !7
  br label %97

97:                                               ; preds = %93, %92
  br label %106

98:                                               ; preds = %57
  %99 = load i32, ptr %7, align 4, !tbaa !20
  %100 = icmp eq i32 %99, 0
  br i1 %100, label %101, label %102

101:                                              ; preds = %98
  br label %104

102:                                              ; preds = %98
  %103 = load i32, ptr %7, align 4, !tbaa !20
  br label %104

104:                                              ; preds = %102, %101
  %105 = phi i32 [ 10, %101 ], [ %103, %102 ]
  store i32 %105, ptr %9, align 4, !tbaa !20
  br label %106

106:                                              ; preds = %104, %97
  %107 = load ptr, ptr %5, align 8, !tbaa !7
  %108 = load i32, ptr %9, align 4, !tbaa !20
  %109 = call i64 @ruby_scan_digits(ptr noundef %107, i64 noundef -1, i32 noundef %108, ptr noundef %12, ptr noundef %10)
  store i64 %109, ptr %13, align 8, !tbaa !12
  %110 = load i64, ptr %12, align 8, !tbaa !12
  %111 = icmp ult i64 0, %110
  br i1 %111, label %112, label %116

112:                                              ; preds = %106
  %113 = load ptr, ptr %5, align 8, !tbaa !7
  %114 = load i64, ptr %12, align 8, !tbaa !12
  %115 = getelementptr i8, ptr %113, i64 %114
  store ptr %115, ptr %14, align 8, !tbaa !7
  br label %116

116:                                              ; preds = %112, %106
  %117 = load ptr, ptr %6, align 8, !tbaa !25
  %118 = icmp ne ptr %117, null
  br i1 %118, label %119, label %122

119:                                              ; preds = %116
  %120 = load ptr, ptr %14, align 8, !tbaa !7
  %121 = load ptr, ptr %6, align 8, !tbaa !25
  store ptr %120, ptr %121, align 8, !tbaa !7
  br label %122

122:                                              ; preds = %119, %116
  %123 = load i32, ptr %10, align 4, !tbaa !20
  %124 = icmp ne i32 %123, 0
  br i1 %124, label %125, label %127

125:                                              ; preds = %122
  %126 = call ptr @rb_errno_ptr()
  store i32 34, ptr %126, align 4, !tbaa !20
  store i64 -1, ptr %4, align 8
  store i32 1, ptr %15, align 4
  br label %136

127:                                              ; preds = %122
  %128 = load i32, ptr %11, align 4, !tbaa !20
  %129 = icmp slt i32 %128, 0
  br i1 %129, label %130, label %134

130:                                              ; preds = %127
  %131 = load i64, ptr %13, align 8, !tbaa !12
  %132 = sub i64 0, %131
  store i64 %132, ptr %13, align 8, !tbaa !12
  %133 = load i64, ptr %13, align 8, !tbaa !12
  store i64 %133, ptr %4, align 8
  store i32 1, ptr %15, align 4
  br label %136

134:                                              ; preds = %127
  %135 = load i64, ptr %13, align 8, !tbaa !12
  store i64 %135, ptr %4, align 8
  store i32 1, ptr %15, align 4
  br label %136

136:                                              ; preds = %134, %130, %125, %27, %19
  call void @llvm.lifetime.end.p0(i64 8, ptr %14) #16
  call void @llvm.lifetime.end.p0(i64 8, ptr %13) #16
  call void @llvm.lifetime.end.p0(i64 8, ptr %12) #16
  call void @llvm.lifetime.end.p0(i64 4, ptr %11) #16
  call void @llvm.lifetime.end.p0(i64 4, ptr %10) #16
  call void @llvm.lifetime.end.p0(i64 4, ptr %9) #16
  call void @llvm.lifetime.end.p0(i64 4, ptr %8) #16
  %137 = load i64, ptr %4, align 8
  ret i64 %137
}