; Function Attrs: nounwind sspstrong uwtable
define dso_local i64 @ruby_strtoul(ptr noundef nonnull %0, ptr noundef writeonly captures(address_is_null) %1, i32 noundef %2) local_unnamed_addr #2 {
  %4 = icmp slt i32 %2, 0
  br i1 %4, label %5, label %7

5:                                                ; preds = %3
  %6 = tail call ptr @rb_errno_ptr() #19
  store i32 22, ptr %6, align 4, !tbaa !15
  br label %72

7:                                                ; preds = %3
  %8 = icmp eq i32 %2, 1
  %9 = icmp samesign ugt i32 %2, 36
  %or.cond = or i1 %8, %9
  br i1 %or.cond, label %11, label %.preheader

.preheader:                                       ; preds = %7
  %10 = load i8, ptr %0, align 1, !tbaa !7
  %cond61 = icmp eq i8 %10, 0
  br i1 %cond61, label %.thread, label %.lr.ph

11:                                               ; preds = %7
  %12 = tail call ptr @rb_errno_ptr() #19
  store i32 22, ptr %12, align 4, !tbaa !15
  br label %72

.lr.ph:                                           ; preds = %.preheader, %18
  %13 = phi i8 [ %20, %18 ], [ %10, %.preheader ]
  %.04062 = phi ptr [ %19, %18 ], [ %0, %.preheader ]
  %14 = sext i8 %13 to i32
  %15 = icmp ne i8 %13, 32
  %16 = add nsw i32 %14, -14
  %17 = icmp ult i32 %16, -5
  %narrow.i.not = select i1 %15, i1 %17, i1 false
  br i1 %narrow.i.not, label %.critedge, label %18

18:                                               ; preds = %.lr.ph
  %19 = getelementptr i8, ptr %.04062, i64 1
  %20 = load i8, ptr %19, align 1, !tbaa !7
  %cond = icmp eq i8 %20, 0
  br i1 %cond, label %.thread, label %.lr.ph, !llvm.loop !18

.critedge:                                        ; preds = %.lr.ph
  switch i8 %13, label %25 [
    i8 43, label %21
    i8 45, label %23
  ]

21:                                               ; preds = %.critedge
  %22 = getelementptr i8, ptr %.04062, i64 1
  br label %25

23:                                               ; preds = %.critedge
  %24 = getelementptr i8, ptr %.04062, i64 1
  br label %25

25:                                               ; preds = %.critedge, %23, %21
  %.141.ph = phi ptr [ %.04062, %.critedge ], [ %24, %23 ], [ %22, %21 ]
  %.ph = phi i1 [ false, %.critedge ], [ true, %23 ], [ false, %21 ]
  %.pr = load i8, ptr %.141.ph, align 1, !tbaa !7
  %26 = icmp eq i8 %.pr, 48
  br i1 %26, label %27, label %.thread

27:                                               ; preds = %25
  %28 = getelementptr i8, ptr %.141.ph, i64 1
  %29 = icmp eq i32 %2, 0
  switch i32 %2, label %39 [
    i32 16, label %30
    i32 0, label %30
  ]

30:                                               ; preds = %27, %27
  %31 = load i8, ptr %28, align 1, !tbaa !7
  switch i8 %31, label %34 [
    i8 120, label %32
    i8 88, label %32
  ]

32:                                               ; preds = %30, %30
  %33 = getelementptr i8, ptr %.141.ph, i64 2
  br label %39

34:                                               ; preds = %30
  %35 = select i1 %29, i32 8, i32 16
  br label %39

.thread:                                          ; preds = %18, %.preheader, %25
  %36 = phi i1 [ %.ph, %25 ], [ false, %.preheader ], [ false, %18 ]
  %.14156 = phi ptr [ %.141.ph, %25 ], [ %0, %.preheader ], [ %19, %18 ]
  %37 = icmp eq i32 %2, 0
  %38 = select i1 %37, i32 10, i32 %2
  br label %39

39:                                               ; preds = %27, %34, %32, %.thread
  %40 = phi i1 [ %.ph, %32 ], [ %.ph, %34 ], [ %36, %.thread ], [ %.ph, %27 ]
  %.2 = phi ptr [ %33, %32 ], [ %28, %34 ], [ %.14156, %.thread ], [ %28, %27 ]
  %.038 = phi i32 [ 16, %32 ], [ %35, %34 ], [ %38, %.thread ], [ %2, %27 ]
  %.0 = phi ptr [ %28, %32 ], [ %28, %34 ], [ %0, %.thread ], [ %28, %27 ]
  %41 = sext i32 %.038 to i64
  %42 = load i8, ptr %.2, align 1, !tbaa !7
  %43 = zext i8 %42 to i64
  %44 = getelementptr [256 x i8], ptr @ruby_digit36_to_number_table, i64 0, i64 %43
  %45 = load i8, ptr %44, align 1, !tbaa !7
  %46 = icmp ne i8 %45, -1
  %47 = sext i8 %45 to i32
  %.not36.us.i63 = icmp sgt i32 %.038, %47
  %or.cond.us.i64 = and i1 %46, %.not36.us.i63
  br i1 %or.cond.us.i64, label %.critedge.us.i, label %ruby_scan_digits.exit

.critedge.us.i:                                   ; preds = %39, %.critedge.us.i
  %48 = phi i8 [ %58, %.critedge.us.i ], [ %45, %39 ]
  %.029.us.i67 = phi ptr [ %49, %.critedge.us.i ], [ %.2, %39 ]
  %.031.us.i66 = phi i64 [ %52, %.critedge.us.i ], [ 0, %39 ]
  %.05465 = phi i32 [ %spec.select57, %.critedge.us.i ], [ 0, %39 ]
  %49 = getelementptr i8, ptr %.029.us.i67, i64 1
  %mul.us.i = tail call { i64, i1 } @llvm.umul.with.overflow.i64(i64 %41, i64 %.031.us.i66)
  %mul.ov.us.i = extractvalue { i64, i1 } %mul.us.i, 1
  %50 = mul i64 %.031.us.i66, %41
  %51 = sext i8 %48 to i64
  %52 = add i64 %50, %51
  %53 = icmp ult i64 %52, %50
  %54 = or i1 %mul.ov.us.i, %53
  %spec.select57 = select i1 %54, i32 1, i32 %.05465
  %55 = load i8, ptr %49, align 1, !tbaa !7
  %56 = zext i8 %55 to i64
  %57 = getelementptr [256 x i8], ptr @ruby_digit36_to_number_table, i64 0, i64 %56
  %58 = load i8, ptr %57, align 1, !tbaa !7
  %59 = icmp ne i8 %58, -1
  %60 = sext i8 %58 to i32
  %.not36.us.i = icmp sgt i32 %.038, %60
  %or.cond.us.i = and i1 %59, %.not36.us.i
  br i1 %or.cond.us.i, label %.critedge.us.i, label %ruby_scan_digits.exit.loopexit

ruby_scan_digits.exit.loopexit:                   ; preds = %.critedge.us.i
  %61 = icmp eq i32 %spec.select57, 0
  br label %ruby_scan_digits.exit

ruby_scan_digits.exit:                            ; preds = %ruby_scan_digits.exit.loopexit, %39
  %.054.lcssa = phi i1 [ true, %39 ], [ %61, %ruby_scan_digits.exit.loopexit ]
  %.031.us.i.lcssa = phi i64 [ 0, %39 ], [ %52, %ruby_scan_digits.exit.loopexit ]
  %.029.us.i.lcssa = phi ptr [ %.2, %39 ], [ %49, %ruby_scan_digits.exit.loopexit ]
  %.not50 = icmp eq ptr %1, null
  br i1 %.not50, label %67, label %62

62:                                               ; preds = %ruby_scan_digits.exit
  %.not49 = icmp eq ptr %.029.us.i.lcssa, %.2
  %63 = ptrtoint ptr %.029.us.i.lcssa to i64
  %64 = ptrtoint ptr %.2 to i64
  %65 = sub i64 %63, %64
  %66 = getelementptr i8, ptr %.2, i64 %65
  %spec.select = select i1 %.not49, ptr %.0, ptr %66
  store ptr %spec.select, ptr %1, align 8, !tbaa !19
  br label %67

67:                                               ; preds = %62, %ruby_scan_digits.exit
  br i1 %.054.lcssa, label %70, label %68

68:                                               ; preds = %67
  %69 = tail call ptr @rb_errno_ptr() #19
  store i32 34, ptr %69, align 4, !tbaa !15
  br label %72

70:                                               ; preds = %67
  %71 = sub i64 0, %.031.us.i.lcssa
  %spec.select52 = select i1 %40, i64 %71, i64 %.031.us.i.lcssa
  br label %72

72:                                               ; preds = %70, %68, %11, %5
  %.039 = phi i64 [ 0, %5 ], [ 0, %11 ], [ -1, %68 ], [ %spec.select52, %70 ]
  ret i64 %.039
}